; Function Attrs: mustprogress uwtable
define void @_ZNK6icu_779VTimeZone9getOffsetEdaRiS1_R10UErrorCode(ptr noundef nonnull readonly align 8 captures(none) dereferenceable(288) %0, double noundef %1, i8 noundef signext %2, ptr noundef nonnull align 4 dereferenceable(4) %3, ptr noundef nonnull align 4 dereferenceable(4) %4, ptr noundef nonnull align 4 dereferenceable(4) %5) unnamed_addr #2 align 2 {
  %7 = getelementptr inbounds nuw i8, ptr %0, i64 72
  %8 = load ptr, ptr %7, align 8, !tbaa !29
  %9 = load ptr, ptr %8, align 8, !tbaa !17
  %10 = getelementptr inbounds nuw i8, ptr %9, i64 48
  %11 = load ptr, ptr %10, align 8
  tail call void %11(ptr noundef nonnull align 8 dereferenceable(72) %8, double noundef %1, i8 noundef signext %2, ptr noundef nonnull align 4 dereferenceable(4) %3, ptr noundef nonnull align 4 dereferenceable(4) %4, ptr noundef nonnull align 4 dereferenceable(4) %5)
  ret void
}